target datalayout = "e-m:e-p270:32:32-p271:32:32-p272:64:64-i64:64-i128:128-f80:128-n8:16:32:64-S128"
target triple = "x86_64-pc-linux-gnu"

%struct._typeobject = type { %struct.PyVarObject, ptr, i64, i64, ptr, i64, ptr, ptr, ptr, ptr, ptr, ptr, ptr, ptr, ptr, ptr, ptr, ptr, ptr, i64, ptr, ptr, ptr, ptr, i64, ptr, ptr, ptr, ptr, ptr, ptr, ptr, ptr, ptr, i64, ptr, ptr, ptr, ptr, ptr, ptr, ptr, ptr, ptr, ptr, ptr, i32, ptr, ptr }
%struct.PyVarObject = type { %struct._object, i64 }
%struct._object = type { i64, ptr }
%"struct.nanobind::detail::type_data" = type { i32, i32, ptr, ptr, ptr, ptr, ptr, ptr, ptr, ptr, %union.anon, ptr, ptr }
%union.anon = type { %struct.anon }
%struct.anon = type { ptr, ptr }
%struct.PyTupleObject = type { %struct.PyVarObject, [1 x ptr] }

@PyType_Type = external global %struct._typeobject, align 8
@PyExc_TypeError = external global ptr, align 8
@PyExc_RuntimeError = external global ptr, align 8
@.str.26 = private unnamed_addr constant [45 x i8] c"nb_type_init(): invalid number of arguments!\00", align 1
@PyTuple_Type = external global %struct._typeobject, align 8
@.str.27 = private unnamed_addr constant [41 x i8] c"nb_type_init(): invalid number of bases!\00", align 1
@.str.28 = private unnamed_addr constant [45 x i8] c"nb_type_init(): expected a base type object!\00", align 1
@.str.29 = private unnamed_addr constant [37 x i8] c"The type '%s' prohibits subclassing!\00", align 1

; Function Attrs: inlinehint mustprogress nounwind uwtable
define internal noundef i32 @_ZL17PyType_HasFeatureP11_typeobjectm(ptr noundef %0, i64 noundef %1) #2 {
  %3 = alloca ptr, align 8
  %4 = alloca i64, align 8
  %5 = alloca i64, align 8
  store ptr %0, ptr %3, align 8
  store i64 %1, ptr %4, align 8
  call void @llvm.lifetime.start.p0(i64 8, ptr %5) #20
  %6 = load ptr, ptr %3, align 8
  %7 = getelementptr inbounds nuw %struct._typeobject, ptr %6, i32 0, i32 19
  %8 = load i64, ptr %7, align 8
  store i64 %8, ptr %5, align 8
  %9 = load i64, ptr %5, align 8
  %10 = load i64, ptr %4, align 8
  %11 = and i64 %9, %10
  %12 = icmp ne i64 %11, 0
  %13 = zext i1 %12 to i32
  call void @llvm.lifetime.end.p0(i64 8, ptr %5) #20
  ret i32 %13
}

; Function Attrs: inlinehint mustprogress uwtable
define internal void @_ZL10_Py_DECREFP7_object(ptr noundef %0) #10 {
  %2 = alloca ptr, align 8
  store ptr %0, ptr %2, align 8
  %3 = load ptr, ptr %2, align 8
  %4 = getelementptr inbounds nuw %struct._object, ptr %3, i32 0, i32 0
  %5 = load i64, ptr %4, align 8
  %6 = add nsw i64 %5, -1
  store i64 %6, ptr %4, align 8
  %7 = icmp ne i64 %6, 0
  br i1 %7, label %8, label %9

8:                                                ; preds = %1
  br label %11

9:                                                ; preds = %1
  %10 = load ptr, ptr %2, align 8
  call void @_Py_Dealloc(ptr noundef %10)
  br label %11

11:                                               ; preds = %9, %8
  ret void
}

; Function Attrs: alwaysinline mustprogress nounwind uwtable
define linkonce_odr hidden noundef ptr @_ZN8nanobind6detail12nb_type_dataEP11_typeobject(ptr noundef %0) #5 comdat {
  %2 = alloca ptr, align 8
  store ptr %0, ptr %2, align 8
  %3 = load ptr, ptr %2, align 8
  %4 = getelementptr inbounds nuw i8, ptr %3, i64 888
  ret ptr %4
}

; Function Attrs: inlinehint mustprogress nounwind uwtable
define internal noundef i32 @_ZL13_PyType_CheckP7_object(ptr noundef %0) #2 {
  %2 = alloca ptr, align 8
  store ptr %0, ptr %2, align 8
  %3 = load ptr, ptr %2, align 8
  %4 = getelementptr inbounds nuw %struct._object, ptr %3, i32 0, i32 1
  %5 = load ptr, ptr %4, align 8
  %6 = call noundef i32 @_ZL17PyType_HasFeatureP11_typeobjectm(ptr noundef %5, i64 noundef 2147483648)
  ret i32 %6
}

; Function Attrs: inlinehint mustprogress nounwind uwtable
define internal noundef i32 @_ZL11_Py_IS_TYPEPK7_objectPK11_typeobject(ptr noundef %0, ptr noundef %1) #2 {
  %3 = alloca ptr, align 8
  %4 = alloca ptr, align 8
  store ptr %0, ptr %3, align 8
  store ptr %1, ptr %4, align 8
  %5 = load ptr, ptr %3, align 8
  %6 = getelementptr inbounds nuw %struct._object, ptr %5, i32 0, i32 1
  %7 = load ptr, ptr %6, align 8
  %8 = load ptr, ptr %4, align 8
  %9 = icmp eq ptr %7, %8
  %10 = zext i1 %9 to i32
  ret i32 %10
}

; Function Attrs: mustprogress uwtable
define internal noundef i32 @_ZN8nanobind6detailL12nb_type_initEP7_objectS2_S2_(ptr noundef %0, ptr noundef %1, ptr noundef %2) #0 {
  %4 = alloca i32, align 4
  %5 = alloca ptr, align 8
  %6 = alloca ptr, align 8
  %7 = alloca ptr, align 8
  %8 = alloca ptr, align 8
  %9 = alloca i32, align 4
  %10 = alloca ptr, align 8
  %11 = alloca ptr, align 8
  %12 = alloca i32, align 4
  %13 = alloca ptr, align 8
  %14 = alloca ptr, align 8
  store ptr %0, ptr %5, align 8
  store ptr %1, ptr %6, align 8
  store ptr %2, ptr %7, align 8
  %15 = load ptr, ptr %6, align 8
  %16 = getelementptr inbounds nuw %struct.PyVarObject, ptr %15, i32 0, i32 1
  %17 = load i64, ptr %16, align 8
  %18 = icmp ne i64 %17, 3
  br i1 %18, label %19, label %21

19:                                               ; preds = %3
  %20 = load ptr, ptr @PyExc_RuntimeError, align 8
  call void @PyErr_SetString(ptr noundef %20, ptr noundef @.str.26)
  store i32 -1, ptr %4, align 4
  br label %121

21:                                               ; preds = %3
  call void @llvm.lifetime.start.p0(i64 8, ptr %8) #20
  %22 = load ptr, ptr %6, align 8
  %23 = getelementptr inbounds nuw %struct.PyTupleObject, ptr %22, i32 0, i32 1
  %24 = getelementptr inbounds [1 x ptr], ptr %23, i64 0, i64 1
  %25 = load ptr, ptr %24, align 8
  store ptr %25, ptr %8, align 8
  %26 = load ptr, ptr %8, align 8
  %27 = call noundef i32 @_ZL11_Py_IS_TYPEPK7_objectPK11_typeobject(ptr noundef %26, ptr noundef @PyTuple_Type)
  %28 = icmp ne i32 %27, 0
  br i1 %28, label %29, label %34

29:                                               ; preds = %21
  %30 = load ptr, ptr %8, align 8
  %31 = getelementptr inbounds nuw %struct.PyVarObject, ptr %30, i32 0, i32 1
  %32 = load i64, ptr %31, align 8
  %33 = icmp ne i64 %32, 1
  br i1 %33, label %34, label %36

34:                                               ; preds = %29, %21
  %35 = load ptr, ptr @PyExc_RuntimeError, align 8
  call void @PyErr_SetString(ptr noundef %35, ptr noundef @.str.27)
  store i32 -1, ptr %4, align 4
  store i32 1, ptr %9, align 4
  br label %120

36:                                               ; preds = %29
  call void @llvm.lifetime.start.p0(i64 8, ptr %10) #20
  %37 = load ptr, ptr %8, align 8
  %38 = getelementptr inbounds nuw %struct.PyTupleObject, ptr %37, i32 0, i32 1
  %39 = getelementptr inbounds [1 x ptr], ptr %38, i64 0, i64 0
  %40 = load ptr, ptr %39, align 8
  store ptr %40, ptr %10, align 8
  %41 = load ptr, ptr %10, align 8
  %42 = call noundef i32 @_ZL13_PyType_CheckP7_object(ptr noundef %41)
  %43 = icmp ne i32 %42, 0
  br i1 %43, label %46, label %44

44:                                               ; preds = %36
  %45 = load ptr, ptr @PyExc_RuntimeError, align 8
  call void @PyErr_SetString(ptr noundef %45, ptr noundef @.str.28)
  store i32 -1, ptr %4, align 4
  store i32 1, ptr %9, align 4
  br label %119

46:                                               ; preds = %36
  call void @llvm.lifetime.start.p0(i64 8, ptr %11) #20
  %47 = load ptr, ptr %10, align 8
  %48 = call noundef ptr @_ZN8nanobind6detail12nb_type_dataEP11_typeobject(ptr noundef %47) #20
  store ptr %48, ptr %11, align 8
  %49 = load ptr, ptr %11, align 8
  %50 = getelementptr inbounds nuw %"struct.nanobind::detail::type_data", ptr %49, i32 0, i32 1
  %51 = load i32, ptr %50, align 4
  %52 = lshr i32 %51, 8
  %53 = and i32 %52, 512
  %54 = icmp ne i32 %53, 0
  br i1 %54, label %55, label %61

55:                                               ; preds = %46
  %56 = load ptr, ptr @PyExc_TypeError, align 8
  %57 = load ptr, ptr %11, align 8
  %58 = getelementptr inbounds nuw %"struct.nanobind::detail::type_data", ptr %57, i32 0, i32 2
  %59 = load ptr, ptr %58, align 8
  %60 = call ptr (ptr, ptr, ...) @PyErr_Format(ptr noundef %56, ptr noundef @.str.29, ptr noundef %59)
  store i32 -1, ptr %4, align 4
  store i32 1, ptr %9, align 4
  br label %118

61:                                               ; preds = %46
  call void @llvm.lifetime.start.p0(i64 4, ptr %12) #20
  %62 = load ptr, ptr getelementptr inbounds nuw (%struct._typeobject, ptr @PyType_Type, i32 0, i32 35), align 8
  %63 = load ptr, ptr %5, align 8
  %64 = load ptr, ptr %6, align 8
  %65 = load ptr, ptr %7, align 8
  %66 = call noundef i32 %62(ptr noundef %63, ptr noundef %64, ptr noundef %65)
  store i32 %66, ptr %12, align 4
  %67 = load i32, ptr %12, align 4
  %68 = icmp ne i32 %67, 0
  br i1 %68, label %69, label %71

69:                                               ; preds = %61
  %70 = load i32, ptr %12, align 4
  store i32 %70, ptr %4, align 4
  store i32 1, ptr %9, align 4
  br label %117

71:                                               ; preds = %61
  call void @llvm.lifetime.start.p0(i64 8, ptr %13) #20
  %72 = load ptr, ptr %5, align 8
  %73 = call noundef ptr @_ZN8nanobind6detail12nb_type_dataEP11_typeobject(ptr noundef %72) #20
  store ptr %73, ptr %13, align 8
  %74 = load ptr, ptr %11, align 8
  %75 = load ptr, ptr %13, align 8
  call void @llvm.memcpy.p0.p0.i64(ptr align 8 %75, ptr align 8 %74, i64 104, i1 false)
  %76 = load ptr, ptr %13, align 8
  %77 = getelementptr inbounds nuw %"struct.nanobind::detail::type_data", ptr %76, i32 0, i32 1
  %78 = load i32, ptr %77, align 4
  %79 = lshr i32 %78, 8
  %80 = or i32 %79, 256
  %81 = load i32, ptr %77, align 4
  %82 = and i32 %80, 16777215
  %83 = shl i32 %82, 8
  %84 = and i32 %81, 255
  %85 = or i32 %84, %83
  store i32 %85, ptr %77, align 4
  %86 = load ptr, ptr %13, align 8
  %87 = getelementptr inbounds nuw %"struct.nanobind::detail::type_data", ptr %86, i32 0, i32 1
  %88 = load i32, ptr %87, align 4
  %89 = lshr i32 %88, 8
  %90 = and i32 %89, -129
  %91 = load i32, ptr %87, align 4
  %92 = and i32 %90, 16777215
  %93 = shl i32 %92, 8
  %94 = and i32 %91, 255
  %95 = or i32 %94, %93
  store i32 %95, ptr %87, align 4
  call void @llvm.lifetime.start.p0(i64 8, ptr %14) #20
  %96 = load ptr, ptr %5, align 8
  %97 = call noundef ptr @_ZN8nanobind6detail12nb_type_nameEP7_object(ptr noundef %96) #20
  store ptr %97, ptr %14, align 8
  %98 = load ptr, ptr %14, align 8
  %99 = call ptr @PyUnicode_AsUTF8AndSize(ptr noundef %98, ptr noundef null)
  %100 = call noundef ptr @_ZN8nanobind6detail12strdup_checkEPKc(ptr noundef %99)
  %101 = load ptr, ptr %13, align 8
  %102 = getelementptr inbounds nuw %"struct.nanobind::detail::type_data", ptr %101, i32 0, i32 2
  store ptr %100, ptr %102, align 8
  %103 = load ptr, ptr %14, align 8
  call void @_ZL10_Py_DECREFP7_object(ptr noundef %103)
  %104 = load ptr, ptr %5, align 8
  %105 = load ptr, ptr %13, align 8
  %106 = getelementptr inbounds nuw %"struct.nanobind::detail::type_data", ptr %105, i32 0, i32 4
  store ptr %104, ptr %106, align 8
  %107 = load ptr, ptr %13, align 8
  %108 = getelementptr inbounds nuw %"struct.nanobind::detail::type_data", ptr %107, i32 0, i32 10
  %109 = getelementptr inbounds nuw %struct.anon, ptr %108, i32 0, i32 0
  store ptr null, ptr %109, align 8
  %110 = load ptr, ptr %13, align 8
  %111 = getelementptr inbounds nuw %"struct.nanobind::detail::type_data", ptr %110, i32 0, i32 10
  %112 = getelementptr inbounds nuw %struct.anon, ptr %111, i32 0, i32 1
  store ptr null, ptr %112, align 8
  %113 = load ptr, ptr %13, align 8
  %114 = getelementptr inbounds nuw %"struct.nanobind::detail::type_data", ptr %113, i32 0, i32 5
  store ptr null, ptr %114, align 8
  %115 = load ptr, ptr %5, align 8
  %116 = getelementptr inbounds nuw %struct._typeobject, ptr %115, i32 0, i32 48
  store ptr null, ptr %116, align 8
  store i32 0, ptr %4, align 4
  store i32 1, ptr %9, align 4
  call void @llvm.lifetime.end.p0(i64 8, ptr %14) #20
  call void @llvm.lifetime.end.p0(i64 8, ptr %13) #20
  br label %117

117:                                              ; preds = %71, %69
  call void @llvm.lifetime.end.p0(i64 4, ptr %12) #20
  br label %118

118:                                              ; preds = %117, %55
  call void @llvm.lifetime.end.p0(i64 8, ptr %11) #20
  br label %119

119:                                              ; preds = %118, %44
  call void @llvm.lifetime.end.p0(i64 8, ptr %10) #20
  br label %120

120:                                              ; preds = %119, %34
  call void @llvm.lifetime.end.p0(i64 8, ptr %8) #20
  br label %121

121:                                              ; preds = %120, %19
  %122 = load i32, ptr %4, align 4
  ret i32 %122
}