; Function Attrs: mustprogress uwtable
define internal noundef i32 @_ZN8nanobind6detailL12nb_type_initEP7_objectS2_S2_(ptr noundef %0, ptr noundef %1, ptr noundef %2) #0 {
  %4 = getelementptr inbounds nuw i8, ptr %1, i64 16
  %5 = load i64, ptr %4, align 8
  %.not = icmp eq i64 %5, 3
  br i1 %.not, label %8, label %6

6:                                                ; preds = %3
  %7 = load ptr, ptr @PyExc_RuntimeError, align 8
  tail call void @PyErr_SetString(ptr noundef %7, ptr noundef nonnull @.str.26)
  br label %55

8:                                                ; preds = %3
  %9 = getelementptr inbounds nuw i8, ptr %1, i64 32
  %10 = load ptr, ptr %9, align 8
  %11 = getelementptr i8, ptr %10, i64 8
  %.val = load ptr, ptr %11, align 8
  %.not36 = icmp eq ptr %.val, @PyTuple_Type
  br i1 %.not36, label %12, label %15

12:                                               ; preds = %8
  %13 = getelementptr inbounds nuw i8, ptr %10, i64 16
  %14 = load i64, ptr %13, align 8
  %.not31 = icmp eq i64 %14, 1
  br i1 %.not31, label %17, label %15

15:                                               ; preds = %12, %8
  %16 = load ptr, ptr @PyExc_RuntimeError, align 8
  tail call void @PyErr_SetString(ptr noundef %16, ptr noundef nonnull @.str.27)
  br label %55

17:                                               ; preds = %12
  %18 = getelementptr inbounds nuw i8, ptr %10, i64 24
  %19 = load ptr, ptr %18, align 8
  %20 = getelementptr i8, ptr %19, i64 8
  %.val35 = load ptr, ptr %20, align 8
  %21 = getelementptr i8, ptr %.val35, i64 168
  %.val35.val = load i64, ptr %21, align 8
  %22 = and i64 %.val35.val, 2147483648
  %.not37 = icmp eq i64 %22, 0
  br i1 %.not37, label %23, label %25

23:                                               ; preds = %17
  %24 = load ptr, ptr @PyExc_RuntimeError, align 8
  tail call void @PyErr_SetString(ptr noundef %24, ptr noundef nonnull @.str.28)
  br label %55

25:                                               ; preds = %17
  %26 = getelementptr inbounds nuw i8, ptr %19, i64 888
  %27 = getelementptr inbounds nuw i8, ptr %19, i64 892
  %28 = load i32, ptr %27, align 4
  %29 = and i32 %28, 131072
  %.not33 = icmp eq i32 %29, 0
  br i1 %.not33, label %35, label %30

30:                                               ; preds = %25
  %31 = load ptr, ptr @PyExc_TypeError, align 8
  %32 = getelementptr inbounds nuw i8, ptr %19, i64 896
  %33 = load ptr, ptr %32, align 8
  %34 = tail call ptr (ptr, ptr, ...) @PyErr_Format(ptr noundef %31, ptr noundef nonnull @.str.29, ptr noundef %33)
  br label %55

35:                                               ; preds = %25
  %36 = load ptr, ptr getelementptr inbounds nuw (i8, ptr @PyType_Type, i64 296), align 8
  %37 = tail call noundef i32 %36(ptr noundef %0, ptr noundef nonnull %1, ptr noundef %2)
  %.not34 = icmp eq i32 %37, 0
  br i1 %.not34, label %38, label %55

38:                                               ; preds = %35
  %39 = getelementptr inbounds nuw i8, ptr %0, i64 888
  tail call void @llvm.memcpy.p0.p0.i64(ptr noundef nonnull align 8 dereferenceable(104) %39, ptr noundef nonnull align 8 dereferenceable(104) %26, i64 104, i1 false)
  %40 = getelementptr inbounds nuw i8, ptr %0, i64 892
  %41 = load i32, ptr %40, align 4
  %42 = and i32 %41, -98305
  %43 = or disjoint i32 %42, 65536
  store i32 %43, ptr %40, align 4
  %44 = tail call noundef ptr @_ZN8nanobind6detail12nb_type_nameEP7_object(ptr noundef %0) #29
  %45 = tail call ptr @PyUnicode_AsUTF8AndSize(ptr noundef %44, ptr noundef null)
  %46 = tail call noundef ptr @_ZN8nanobind6detail12strdup_checkEPKc(ptr noundef %45)
  %47 = getelementptr inbounds nuw i8, ptr %0, i64 896
  store ptr %46, ptr %47, align 8
  %48 = load i64, ptr %44, align 8
  %49 = add nsw i64 %48, -1
  store i64 %49, ptr %44, align 8
  %.not.i = icmp eq i64 %49, 0
  br i1 %.not.i, label %50, label %_ZL10_Py_DECREFP7_object.exit

50:                                               ; preds = %38
  tail call void @_Py_Dealloc(ptr noundef nonnull %44)
  br label %_ZL10_Py_DECREFP7_object.exit

_ZL10_Py_DECREFP7_object.exit:                    ; preds = %38, %50
  %51 = getelementptr inbounds nuw i8, ptr %0, i64 912
  store ptr %0, ptr %51, align 8
  %52 = getelementptr inbounds nuw i8, ptr %0, i64 960
  %53 = getelementptr inbounds nuw i8, ptr %0, i64 920
  store ptr null, ptr %53, align 8
  %54 = getelementptr inbounds nuw i8, ptr %0, i64 400
  store ptr null, ptr %54, align 8
  tail call void @llvm.memset.p0.i64(ptr noundef nonnull align 8 dereferenceable(16) %52, i8 0, i64 16, i1 false)
  br label %55

55:                                               ; preds = %15, %30, %35, %_ZL10_Py_DECREFP7_object.exit, %23, %6
  %.0 = phi i32 [ -1, %6 ], [ -1, %15 ], [ -1, %23 ], [ -1, %30 ], [ 0, %_ZL10_Py_DECREFP7_object.exit ], [ %37, %35 ]
  ret i32 %.0
}